target datalayout = "e-m:e-p270:32:32-p271:32:32-p272:64:64-i64:64-i128:128-f80:128-n8:16:32:64-S128"
target triple = "x86_64-pc-linux-gnu"

%struct.lv_i18n_lang_t = type { ptr, ptr, [6 x ptr], ptr }

@current_lang = internal global ptr null, align 8

; Function Attrs: nounwind uwtable
define ptr @lv_i18n_get_current_locale() #0 {
  %1 = alloca ptr, align 8
  %2 = load ptr, ptr @current_lang, align 8, !tbaa !3
  %3 = icmp ne ptr %2, null
  br i1 %3, label %5, label %4

4:                                                ; preds = %0
  store ptr null, ptr %1, align 8
  br label %9

5:                                                ; preds = %0
  %6 = load ptr, ptr @current_lang, align 8, !tbaa !3
  %7 = getelementptr inbounds nuw %struct.lv_i18n_lang_t, ptr %6, i32 0, i32 0
  %8 = load ptr, ptr %7, align 8, !tbaa !9
  store ptr %8, ptr %1, align 8
  br label %9

9:                                                ; preds = %5, %4
  %10 = load ptr, ptr %1, align 8
  ret ptr %10
}