; Function Attrs: mustprogress nofree norecurse nosync nounwind willreturn memory(read, inaccessiblemem: none) uwtable
define ptr @lv_i18n_get_current_locale() local_unnamed_addr #4 {
  %1 = load ptr, ptr @current_lang, align 8, !tbaa !3
  %.not = icmp eq ptr %1, null
  br i1 %.not, label %4, label %2

2:                                                ; preds = %0
  %3 = load ptr, ptr %1, align 8, !tbaa !7
  br label %4

4:                                                ; preds = %0, %2
  %.0 = phi ptr [ %3, %2 ], [ null, %0 ]
  ret ptr %.0
}